target datalayout = "e-m:e-p270:32:32-p271:32:32-p272:64:64-i64:64-i128:128-f80:128-n8:16:32:64-S128"
target triple = "x86_64-pc-linux-gnu"

@.str = private unnamed_addr constant [22 x i8] c"SDL.app.metadata.name\00", align 1
@.str.1 = private unnamed_addr constant [25 x i8] c"SDL.app.metadata.version\00", align 1
@.str.2 = private unnamed_addr constant [28 x i8] c"SDL.app.metadata.identifier\00", align 1
@SDL_InitMainThread.done_info = internal global i8 0, align 1
@.str.10 = private unnamed_addr constant [13 x i8] c"App name: %s\00", align 1
@.str.11 = private unnamed_addr constant [14 x i8] c"<unspecified>\00", align 1
@.str.12 = private unnamed_addr constant [16 x i8] c"App version: %s\00", align 1
@.str.13 = private unnamed_addr constant [11 x i8] c"App ID: %s\00", align 1
@.str.14 = private unnamed_addr constant [17 x i8] c"SDL revision: %s\00", align 1
@.str.15 = private unnamed_addr constant [40 x i8] c"SDL3-3.3.0-release-3.2.6-544-g2dad6534b\00", align 1

; Function Attrs: nounwind uwtable
define hidden void @SDL_InitMainThread() #2 {
  %1 = alloca ptr, align 8
  call void @SDL_InitTLSData()
  %2 = call zeroext i1 @SDL_InitEnvironment()
  call void @SDL_InitTicks()
  call void @SDL_InitFilesystem()
  %3 = load i8, ptr @SDL_InitMainThread.done_info, align 1, !range !3, !noundef !4
  %4 = trunc i8 %3 to i1
  br i1 %4, label %30, label %5

5:                                                ; preds = %0
  call void @llvm.lifetime.start.p0(i64 8, ptr %1) #10
  %6 = call ptr @SDL_GetAppMetadataProperty_REAL(ptr noundef @.str)
  store ptr %6, ptr %1, align 8
  %7 = load ptr, ptr %1, align 8
  %8 = icmp ne ptr %7, null
  br i1 %8, label %9, label %11

9:                                                ; preds = %5
  %10 = load ptr, ptr %1, align 8
  br label %12

11:                                               ; preds = %5
  br label %12

12:                                               ; preds = %11, %9
  %13 = phi ptr [ %10, %9 ], [ @.str.11, %11 ]
  call void (i32, ptr, ...) @SDL_LogInfo_REAL(i32 noundef 3, ptr noundef @.str.10, ptr noundef %13)
  %14 = call ptr @SDL_GetAppMetadataProperty_REAL(ptr noundef @.str.1)
  store ptr %14, ptr %1, align 8
  %15 = load ptr, ptr %1, align 8
  %16 = icmp ne ptr %15, null
  br i1 %16, label %17, label %19

17:                                               ; preds = %12
  %18 = load ptr, ptr %1, align 8
  br label %20

19:                                               ; preds = %12
  br label %20

20:                                               ; preds = %19, %17
  %21 = phi ptr [ %18, %17 ], [ @.str.11, %19 ]
  call void (i32, ptr, ...) @SDL_LogInfo_REAL(i32 noundef 3, ptr noundef @.str.12, ptr noundef %21)
  %22 = call ptr @SDL_GetAppMetadataProperty_REAL(ptr noundef @.str.2)
  store ptr %22, ptr %1, align 8
  %23 = load ptr, ptr %1, align 8
  %24 = icmp ne ptr %23, null
  br i1 %24, label %25, label %27

25:                                               ; preds = %20
  %26 = load ptr, ptr %1, align 8
  br label %28

27:                                               ; preds = %20
  br label %28

28:                                               ; preds = %27, %25
  %29 = phi ptr [ %26, %25 ], [ @.str.11, %27 ]
  call void (i32, ptr, ...) @SDL_LogInfo_REAL(i32 noundef 3, ptr noundef @.str.13, ptr noundef %29)
  call void (i32, ptr, ...) @SDL_LogInfo_REAL(i32 noundef 3, ptr noundef @.str.14, ptr noundef @.str.15)
  store i8 1, ptr @SDL_InitMainThread.done_info, align 1
  call void @llvm.lifetime.end.p0(i64 8, ptr %1) #10
  br label %30

30:                                               ; preds = %28, %0
  ret void
}