; Function Attrs: nounwind uwtable
define hidden void @SDL_InitMainThread() local_unnamed_addr #2 {
  tail call void @SDL_InitTLSData() #11
  %1 = tail call zeroext i1 @SDL_InitEnvironment() #11
  tail call void @SDL_InitTicks() #11
  tail call void @SDL_InitFilesystem() #11
  %.b6 = load i1, ptr @SDL_InitMainThread.done_info, align 1
  br i1 %.b6, label %9, label %2

2:                                                ; preds = %0
  %3 = tail call ptr @SDL_GetAppMetadataProperty_REAL(ptr noundef nonnull @.str)
  %.not = icmp eq ptr %3, null
  %4 = select i1 %.not, ptr @.str.11, ptr %3
  tail call void (i32, ptr, ...) @SDL_LogInfo_REAL(i32 noundef 3, ptr noundef nonnull @.str.10, ptr noundef nonnull %4) #11
  %5 = tail call ptr @SDL_GetAppMetadataProperty_REAL(ptr noundef nonnull @.str.1)
  %.not7 = icmp eq ptr %5, null
  %6 = select i1 %.not7, ptr @.str.11, ptr %5
  tail call void (i32, ptr, ...) @SDL_LogInfo_REAL(i32 noundef 3, ptr noundef nonnull @.str.12, ptr noundef nonnull %6) #11
  %7 = tail call ptr @SDL_GetAppMetadataProperty_REAL(ptr noundef nonnull @.str.2)
  %.not8 = icmp eq ptr %7, null
  %8 = select i1 %.not8, ptr @.str.11, ptr %7
  tail call void (i32, ptr, ...) @SDL_LogInfo_REAL(i32 noundef 3, ptr noundef nonnull @.str.13, ptr noundef nonnull %8) #11
  tail call void (i32, ptr, ...) @SDL_LogInfo_REAL(i32 noundef 3, ptr noundef nonnull @.str.14, ptr noundef nonnull @.str.15) #11
  store i1 true, ptr @SDL_InitMainThread.done_info, align 1
  br label %9

9:                                                ; preds = %2, %0
  ret void
}